(lp0
(lp1
L3086212483702325277L
aL13671159550646411761L
aL1890907059048403456L
aL10883910038113769216L
aI1509974219146965550
aL11249697137843339920L
aL6293179891449174189L
aI4884131808328981615
aI6195910145311387684
aL5587218879582311696L
aL7319056303677770600L
aL9954455469697609435L
aI3998403098505678999
aI3648460385254516009
aL15772752949087827196L
aL14724740840263954918L
aL11199225539317243815L
aL12599291490709541205L
aL11044321024277143167L
aL8384312375835120453L
aL17692971263830718387L
aL5212082018630934702L
aL4950225354988945752L
aL15736543245586013613L
aL4714840788336456934L
aL17111691297345584086L
aL8796984006327327290L
aL16900560934204198832L
aI377472015291705859
aL2110092867866644279L
aL12463509543421104269L
aI7926447587452532649
aL11284206987770096577L
aL15267028399797592244L
aL5912770295000646722L
aL11079474096978736942L
aL202423384383168101L
aI2752788608358883819
aL9675309021936871036L
aL5403367705585715239L
aL14223418254587405742L
aL13767541007472413048L
aL9541844984244447140L
aL13636559528489257120L
aL16639134216482522903L
aL5247385651436276223L
aL18347549354386465315L
aI9208149662308003716
aI2297144770557208510
aL10220777176198666941L
aL7795323224602605169L
aL9309166860940409675L
aL10581114482320925374L
aL10782457759286165385L
aL16865319978301138657L
aL1405640087841910553L
aL3461150266128960928L
aL12930097671391969759L
aL12425495610594671068L
aL1771127708066544265L
aL16763578268174749288L
aL2262607424228724463L
aL15421346011449316618L
aL17280705554877944671L
aL10920128529004871249L
aL1473798600640519039L
aL13805604423040344105L
aL14762716354611730615L
aI8299668007052725874
aI2789033487533656250
aL4259807826536847408L
aI866519067039596107
aL674908847306187428L
aI7088851479409524494
aI3049799439935990092
aL18208473117187204091L
aI4521932518161051022
aL5739594499018609864L
aL1236309022708991888L
aL4390950901671570518L
aL8832218378447565675L
aI4915052487332489225
aL12097476289338508573L
aL16122798396268652563L
aL2952820774330843589L
aL6159577365721897333L
aL2397754608117365980L
aL510006210381655003L
aL18105411552923981725L
aL4121650833236302312L
aL14675792980668204416L
aL13322223467747917086L
aL17808245750361055034L
aL2637499766946826594L
aL15586260716148776053L
aI3842631860644925775
aL14361223526674556022L
aL16604043815780150854L
aL13850828412349217089L
aL6974174128605976455L
aL12564710163895678980L
aL28904275314194156L
aL9989592053603944330L
aL4033628666098710982L
aL14484549753806122249L
aL6939558717065182934L
aL1020229960736522131L
aL16257787750309173792L
aL15228953993919695333L
aI8142705120348147626
aL16372508128007402153L
aL10747138738128819928L
aL5552573845501246529L
aI7126899496961775199
aL17973229354127185477L
aL412766860748587858L
aL6647388602357534013L
aL13007175698464667065L
aL11690816436834742435L
aI3253366763660571771
aL10446451939841188710L
aL18173713733951720106L
aL14520740769254343768L
aL1734786141121254360L
aL7830054006980321056L
aI1611469782743456423
aL13460380323676880070L
aI5701661857021935001
aL7438561586198848481L
aI4749335248879541687
aI1058319764588123842
aI6607465117862377819
aI8180734451190261499
aL6685375116519777388L
aI9173435367626737365
aL164481955029710644L
aL17246002251688540686L
aL3287973370673044778L
aI5773767004597552538
aL5367133817794781558L
aL63558096751058877L
aI2589323131631408213
aL14911804778516126063L
aL12189985155806455091L
aL9347133587663950362L
aL12971977610093501672L
aL12062226528866298956L
aL11946982913547814085L
aL3878928420779014174L
aI6420998594509869522
aL11571868590515066922L
aL15457723862413163611L
aL6572180181431963658L
aL16084837179451326786L
aL5947316428676476179L
aL1646745931516146678L
aL8663730952359943138L
aL3499020235841234161L
aL13423995870837151127L
aL12780657659350794247L
aI2551397090436742404
aL16727297104982468409L
aL10543162052885548015L
aI3427188061480377586
aL12967995120317720718L
aL4158078175632158905L
aL6328296680400646652L
aI7736017100746484550
aL4487375385568412895L
aL17149581054521692807L
aL15621570949915718948L
aL17318256549377622541L
aL18309643100655635314L
aL13162946798819619937L
aL9448031736323029651L
aL1274304324520636097L
aL15128024697145008492L
aI4352930375668155655
aL9578044787309563637L
aI8334233944482948899
aL9839452822498084434L
aL14396368897962839335L
aL1926032635356658513L
aI7634248048811754447
aL11398637938254791496L
aL17509810791041198724L
aL15324120924301655427L
aL7772270784758841879L
aL10182642300939154412L
aL9710578570015280941L
aI7599034572088617630
aI2148203557762049638
aI8700036317022352051
aL11436721131748469273L
aL901004739923842842L
aL11533987637899784571L
aL10339956913219727924L
aL14877116872083959870L
aI8571081373113383884
aI7474965825428540080
aL14259740035167866111L
aL13126677717907397936L
aL2917764458623772820L
aL825048490662060924L
aL11910692945785269652L
aL15965617498095806923L
aL546231310825243274L
aI2602295095062388787
aI3613737286036606072
aL18008418637701594900L
aI6457183000675154051
aL8420730913401715220L
aL12815408237782182230L
aL10411826701813762615L
aL6804569088146672869L
aL17844639007762593387L
aL9482710855129977794L
aL14640532220205575377L
aL861406555261078061L
aL6839228410899981748L
aL17471756180042417109L
aI5088030214691864704
aL15930983472687415450L
aL14020147340951015880L
aL10374487657511885669L
aL710090502612044789L
aL7284008792506360377L
aL16407080650025622520L
aL11725510935462337010L
aL13287156161621611599L
aL4294918022219280737L
aL3389148848455333283L
aL17352847766964513628L
aL5811886481841417419L
aL12358458323703647674L
aL12323376727806354667L
aL15093523634835146813L
aL16219782622279496561L
aL15288959063975826642L
aL2432494195324343693L
aL12226423479763012706L
aL11235594602655872758L
aL9072220433110412892L
aL9803139829298589443L
aL17657895153143586530L
aI8535979982261195421
aL5051680937743231441L
aI7964364823816953592
aL4846033216819655998L
aL1370971977438217800L
aL16448134156523581342L
aL9034359267933800205L
aL18141671829040561868L
aL13985625384048146585L
aL16484581285284234959L
aL13888954500218327056L
aa(lp2
L3711986952645512918L
aL17825113623319899548L
aL18345902034785334897L
aL11126193831291490031L
aL15620864172363974380L
aI9012382455534003601
aI4718359357247074832
aL14341299201061247321L
aI451404182512708344
aI5720257074921255415
aL7308366730164292204L
aL13571412769697420848L
aL13513604294591041082L
aI8836759841281218009
aL10069566707912921789L
aL16487214412293454127L
aL18086641610988938906L
aL6414278226531769837L
aL1300632595633301057L
aL10092102529307370229L
aL2855964275607136813L
aL10252974794577504788L
aI4689448995347700306
aI2705370565667015310
aL9241325703172506033L
aL13886453581777299729L
aL318262320628107867L
aL16758304289948807721L
aI3578853335974260341
aL8686174926444737914L
aL12684519002223795510L
aL3180646564325751073L
aL15215213103388016034L
aL9640063933723474200L
aL3342892162014474688L
aL13563126666315366002L
aL1841206051776722253L
aL18221009063825800848L
aL15942706270516887109L
aL14515291955023508220L
aL16913392253671051914L
aL12711068027540796788L
aL3761543770508770974L
aL6443146685042128303L
aL9942243831296776796L
aL2340961286093664807L
aL13895900769641578835L
aL14213708026978095544L
aI4589785342318816658
aL10696254730482945288L
aL14208720422542572026L
aL6569938503954038094L
aL6576279751958091020L
aL15947634645820249607L
aI5090287305266244122
aI6834977228736677351
aL4439200277153746225L
aL15064065655477771521L
aI2178993935167472901
aL13375958982278999705L
aL116277983882425074L
aL10486368745972020641L
aI4964073803676099323
aL9768264255485309433L
aI3773189607262983900
aI8574102244733951711
aI2185346042428026183
aI5403047986557952284
aI728628108843131390
aI5974911763066185379
aL15772012031533917775L
aL4601709765690394064L
aI5819251899017807360
aL5569663914737471828L
aL11364413459934254821L
aI3014111995354890632
aI2002690754141486508
aL11992524245719036204L
aL1865608397402561807L
aL17493830756051516791L
aL12276689744878932584L
aL17231164288515539553L
aL6301154437338068552L
aL16474420266465399149L
aL15749033698178960909L
aL12139052666082112203L
aI8848664609240399259
aL15611388249484340910L
aI140638395135924912
aI3741681649013434004
aL14765536418922455575L
aL10971096370410171980L
aI6961196136054223557
aL13539870330949199480L
aL14737755940244572757L
aI5946327393009782497
aL266871707768656465L
aI2867899838439998063
aL9630627601894429018L
aL752704435916671420L
aL17812081445505353182L
aL6824088433689030053L
aL1324754975974051331L
aI1566362212825847305
aL10074823139158063871L
aL11837435718302568847L
aL15479118643998164235L
aI1147064091326093655
aL3169763041906188587L
aL16361847531568275749L
aI5247397076388053439
aI8314841819058441780
aL16237532895177484740L
aL16392621547151657319L
aL16789361290183481963L
aL11502058784078509638L
aL11961770165794675054L
aL17954071491057206841L
aL10833900742878866859L
aI1991791102995650030
aL12848714025990706647L
aL9791220590110169531L
aI2730826140422267596
aI1699495815559640746
aL7717659387495604681L
aL11525057053096680964L
aI8164257317595852439
aL602111125404330271L
aL2474103136154309252L
aL3317720675717110146L
aI8711582114006277432
aL10243258772320043606L
aI5559082445604927766
aL591553977029493085L
aL7742846126800980363L
aL13238443829984357758L
aL3006989712469944778L
aL13083347069178498525L
aL14368796690775830811L
aL7441508455667231439L
aL17330178907151562134L
aL4464627386415687027L
aL11814935545671459271L
aL8152635813477615317L
aL17660933977173255549L
aL6277047315441147402L
aL17962346738408222331L
aL13726510216640886419L
aL18208256572144703186L
aL14492041496231664318L
aL15087322854610646339L
aL16921940734426299080L
aL2311046133819169381L
aI5374417585669671262
aL9246302448288655859L
aL3586021921347503671L
aL17106605594327976576L
aL10641465518601409794L
aL16102731956381398692L
aL4035824659665853914L
aL10646697912586157376L
aL12657432268690434753L
aL17687467749419306303L
aL6673503507020467462L
aL9168042710428583218L
aL11373909035009293991L
aL17244242797675194915L
aL4845100591655336689L
aL13114443643149706655L
aL7963409047822528802L
aL7111789996321854054L
aL16612056781560951246L
aL7993055374377671008L
aL1163549550642841314L
aL12835666311637400981L
aL13247014292424017212L
aI7837404443794176451
aL6697894713080309060L
aL11098718323311683245L
aL11829191248779622861L
aL18117444060792901336L
aL12502344154647988834L
aI5813193914833727042
aI289371880433328665
aL10672973476817413450L
aL11651004378384345382L
aI277712115689470483
aL17080008181884134082L
aL4198932249759552827L
aL8289718719971829366L
aL12263635568283990570L
aL15473910582582324553L
aL4851501068812522163L
aI4191485073469521273
aL10514127242898087395L
aL9175470234590358896L
aL15224968716679026144L
aL991413022247139828L
aL14643197623284955677L
aL10115337729726663351L
aL4939693456830663353L
aL13695696627338010321L
aL8411298136479471166L
aL13388722333283665627L
aI1174170610892861088
aL985315464343556534L
aL8544431602831603357L
aL1572435733481619019L
aL15318813685395197418L
aL5101147365311119960L
aL7434092057154896525L
aL2466697593744358086L
aL10824120808767194601L
aI2052213125832232420
aL5696156693377948085L
aL14892843917904702198L
aI2023333541777434022
aL7123736418407021092L
aI1728095438619860712
aL16229268773463327110L
aL1118457739601785109L
aL12112479302735108745L
aL11788641043807406469L
aL14024090110818830770L
aI9042337181611855315
aL18372156945531919923L
aL14652929170202907231L
aL16638371205062465932L
aI4065799321339835800
aL3923773984176256639L
aI8418442401099202172
aL17485275818276541749L
aL5241275185852688893L
aL7592252952671086888L
aL3898626835921477181L
aL10966148339761481230L
aL14047057584946799088L
aL11663778868862878052L
aL12533377100345811488L
aL15346548133220230568L
aL16075276370034859750L
aI6139964386411151017
aL3192298863334183267L
aL6150569921929336555L
aL9914478605694038558L
aL7278440438319604270L
aL445023360772113082L
aL9373904597660033298L
aI7580585117186769258
aL17361260222746025428L
aL14898115885692797620L
aL9401390961767237968L
aL12665956428620825219L
aL7830266636181590401L
aI6986662836349721223
aL3140131973790681449L
aa(lp3
L13308254601244269504L
aL4277635672475628559L
aL14606520088166496203L
aI5929969079515431981
aL9012132750365320359L
aL11905504394244605553L
aL3866808954585725047L
aL11033267402135385906L
aL3456729213789811094L
aL14247546609612643245L
aL13186072480049160814L
aI1431608060543516885
aL1308075579967676619L
aI5976799853575877115
aI5067721462033806434
aL1995331359877401909L
aL18428548869906095776L
aL2769472308330273896L
aI1075240376265353394
aL12798433227422794728L
aL8040201169159542128L
aL9615071010992769693L
aL14094446708239740899L
aL12490198747557759889L
aL9461891949765377747L
aL7986862192787931320L
aL17094068997482278775L
aL16092129171960997786L
aI8823390340360013089
aL10390730148287999770L
aL15509405933751462522L
aL12290258599278419905L
aL5637074547596147074L
aL4644571780954980396L
aL11420413998388532916L
aL16568238529292031809L
aL14697295236568539651L
aL18322468146855001790L
aL13702825329892317784L
aL11474879939944694652L
aL2130250934850517371L
aI2381375459171204590
aI5726724861106924618
aL15014727099806288892L
aL8261460730970324247L
aL7957201248438007150L
aL11017821209268279084L
aL12532595463949123143L
aL9971572805125039867L
aL11699125962128533495L
aL6619337034407864787L
aL16478026364928410249L
aL1341394799222609181L
aI5195489118814522828
aL3769665156536064105L
aL2852472194960784502L
aL5233382237721245722L
aL10158001621100390243L
aL4340989288478348681L
aL15052619881420488234L
aL3315182428925350280L
aI7016631199304784136
aL45662093504483612L
aL8396511251459918169L
aL13351285247338167262L
aL10814188035548126036L
aL14559689101644857885L
aL17344179139952833222L
aL16941039400428968761L
aI1532433301378416973
aL13822417195154192966L
aL8958229724400742767L
aL15530340331214675884L
aI539277395238225228
aL6030983218626241587L
aI7616841382978298174
aL18376370071296781174L
aI3812907062351998399
aL4451644400809375127L
aL1033195501578247524L
aI448219674365300868
aL2926135651250065424L
aL2328317957782595622L
aL17113948609081809569L
aL5324158483623751122L
aL14193926160147566181L
aL11872043966345193071L
aL10025474729560535859L
aL15578450289615324700L
aI5656602317490965588
aL12264820954248538647L
aL10415113711576128204L
aI8486443039947414673
aL16435628549168838495L
aL6630784606522867075L
aL16389840586515928793L
aL17060608534953889641L
aL11071161283402482404L
aL13133894781078607800L
aL2101645321944370349L
aL14802509678954603419L
aL15106804348010425314L
aL17932251479680761638L
aL17952763783772790584L
aL12710296190538343414L
aL17737632797264933726L
aL10160499655534282621L
aL2891619263677965766L
aL12355314593582579679L
aL1894317186675043627L
aL3634535467870465063L
aL11752184561286033983L
aL3367360340627563614L
aL17039885595910011583L
aI2982113999975591950
aL10480098984949316306L
aL14040543718780287531L
aL4430920012227084353L
aL6960652815947692310L
aI663676134032915682
aL16415279330929779471L
aL9418791149675142861L
aL6586016715767389189L
aL4316583985386652121L
aL12744812777964017184L
aI7440202061804334406
aI7051146487489785054
aL16134174808991715916L
aL12443227692573911951L
aI7515756660375470368
aL7350834322637191310L
aL8313569039554010377L
aL17387209820141949656L
aI3015221915430012376
aL5111173709453558196L
aL2374936740703313392L
aL11494406960372430506L
aL16300754290127913745L
aL8011385747225518246L
aL8375787962246937743L
aL4225527398519313425L
aL13731642046745849742L
aL135593882002457812L
aL10946727346014419786L
aI1130269265891704186
aL15456347334600261554L
aL14649620922350901205L
aL15068066039660191284L
aL609773108062038314L
aL7570221500402554088L
aL8847420962558963959L
aL16978580673329196783L
aL10979084000573596410L
aL469154816993322322L
aL8466563074143856967L
aL10106878141057831605L
aI2047180481906809189
aL11791133211221215209L
aL10004891824524759853L
aL9055373556545622385L
aL6166175507110613117L
aL14196424229207289467L
aL17987279271544498926L
aI1397443319124342019
aL7492381072875296912L
aL11926228432924652455L
aL16045087447317596036L
aL97699663709696258L
aI1443345903192888453
aL9643676424045805387L
aL13188641097976119920L
aL3405394625497023552L
aL8351109979731863775L
aL14712860466693994067L
aL1584962842053686427L
aL15475875454665689700L
aL12765325116686595646L
aL16524997385819660951L
aL11852165454384419769L
aL6924551819060426L
aI688902670542555444
aL558804065765355674L
aL2429402714478020664L
aL1948501685473048803L
aL6083105020076929123L
aL3824412571185696161L
aL1941992383512090877L
aL16886573458862313201L
aL5285419842552780804L
aI6136162521471821227
aL17296153196763186960L
aL8877010757610737897L
aL17828409010953086614L
aL13792757150587867024L
aL10903274331946618524L
aL10505325875933449988L
aL13261636035088035350L
aL16925523208452012839L
aL12379345960963017225L
aL5164795260441433212L
aL17767293941199472264L
aL2822812350250125728L
aL11736668334682722849L
aI2798288829899925950
aL4187985358954357191L
aL2077192367907368115L
aL6927543801108761792L
aL1086815918835255468L
aL13399312289915424264L
aL14006380272297431037L
aL9371115736070925083L
aL6529968161235139611L
aL10856232573211668098L
aL634156321447468284L
aI3713595013794647097
aL11441349495488947042L
aL18373801418745039720L
aL4699319195615106532L
aL14832522469041018445L
aL15603678279984493514L
aL16001635532620673618L
aL3659973462800488945L
aL17857224628436800320L
aL12399985449731726937L
aL5983309121441583589L
aL4360868154913153119L
aI6772401510756261277
aL15668663587447657428L
aL10059639275696293605L
aI8902449852195792191
aL6111709533346383285L
aL17899142269290040048L
aL14141395303069531059L
aL9524014387607723861L
aL10213029412974621355L
aL7402167811560672600L
aL6495804519201999309L
aL14061126589184465461L
aL17433829485682157326L
aL5747658904364603804L
aL9000627207440041145L
aL1494469170505294163L
aL6683315246565820501L
aL16324784558120744647L
aL9554026078326958723L
aL4669799417120716282L
aL15693046051349210626L
aI4723701309348143154
aI8222511318674786497
aL14741464780376146821L
aL7563782816028865782L
aL13239975469502330790L
aL3689563291942271471L
aI5122749286116090282
aL9508721836901976837L
aI6721279342814193739
aa(lp4
L2048520562788823768L
aL6942265784763732662L
aL8857247064023459269L
aL345311859629206376L
aL7013394154624673647L
aL5478711605894395953L
aL18360459612472759994L
aL16674863814724631251L
aL6762875726194495796L
aL12796323918242981930L
aL8511659718343612026L
aL17779015897951196118L
aL11772332485386934837L
aL17303654346818718662L
aL14821209640986576964L
aI4206211812599460848
aL13574667048441851468L
aL14184723618044459249L
aI5924032079405103505
aL8179985507510041523L
aL18036915335885840489L
aL16350594667432425945L
aL1658354514628684974L
aL9290077986638829591L
aL4935662977066614109L
aI6576278639188248868
aL2844460763096197450L
aL16603207680624529162L
aL7408083575935961766L
aL9980521759235634104L
aI3066607140560187180
aL8331239402701772144L
aL93225653116348514L
aL7726355959751576768L
aL16209401028951987994L
aI2266749715903457730
aL15845668163690040456L
aL16827309701085751215L
aL5626100186818893554L
aI4755519875794058839
aL11297687794151094132L
aL14069274828373218616L
aL11549314426091815215L
aL3248395926299067109L
aL6828123228290386478L
aL12658356492561656202L
aL12866078851277386544L
aL8360046538665441465L
aI2996605348912886838
aL5445436054742029816L
aL11369906878338351789L
aL13725072395808522383L
aL6320692917382691483L
aL12095877326896278758L
aL12333404979035938649L
aL10465864418272145682L
aL5995723674264603720L
aI8928446076331610140
aI7479838941128245119
aL15707632322671698507L
aL594182004997593303L
aL7265831914679690341L
aL4054594511902776627L
aL17894025683545951914L
aI5298964759918197563
aL3177267282500220732L
aL10233134908123301227L
aI8582744107638317987
aL9362853423710219726L
aL11873144576269252604L
aL2015244874201800465L
aL13860048479255989794L
aL16025742958069256066L
aL14643083190726086740L
aL5849808165382480523L
aL6690654168072053997L
aL5227203072701763298L
aI6899840935477329911
aL3614634743837357724L
aL12024124435639179583L
aI7654697625386727705
aL6503435031187995901L
aL7083113903857384565L
aL15245154522076088804L
aL17454063819503068421L
aL1196251836462285159L
aL1867922832785535442L
aL9843259974140534139L
aL16280558261160927939L
aL17700011307809343692L
aL9761170271945717214L
aL9109032811752346390L
aL6437902222300964839L
aL5373188108240314401L
aI7978259494862753738
aL5551599194258640360L
aL8259029114741219497L
aL1405443004999047805L
aL9437112524822869716L
aI7503372519363041242
aL9915024135291087010L
aL8714716125197306630L
aL13544786789133599621L
aL17157805372893203046L
aL2621481719816680016L
aI2693762376823392137
aL3318111276279339519L
aL12585574183643192403L
aI2772802155061845139
aL8051043727892429331L
aL990521510971448285L
aL16906037216978648245L
aL18218982297311656057L
aL9688880542894374919L
aL1127216514738058526L
aL3138362231813610229L
aL13118973475141240291L
aL14321980732365231666L
aI3544633518146268550
aL11620445269887022326L
aL13394576861435669830L
aL1268473120645903550L
aL7575653452455043587L
aL10718504779184304664L
aL15026674679273345790L
aL13998154980801077473L
aL10393548301109970123L
aL1333725021994102692L
aL15350667161952080372L
aL665829343138360590L
aI7155995169861929388
aI803372605631841229
aL2519889937302235712L
aL18108001922962281904L
aL4127449113978611946L
aL10854906747800722651L
aL13048940897803706105L
aL17007670780804916389L
aL1056050486570827975L
aL917748271950245380L
aI3869607160955542357
aL13473585852713203292L
aL11045232304203887742L
aL8787526746942848735L
aL17526390930741842140L
aL10052767231870191201L
aL3390992266467060774L
aL10095032527596727208L
aL20337791081684411L
aL12119710212844176451L
aL10531362607984159240L
aL8432901416827719008L
aI5072557525281690526
aL11444443054767348151L
aL12515542172064925513L
aL10304254482024919218L
aL14496253727834685079L
aI2195058397129219099
aL15960249163050341528L
aL10789694995265734593L
aL17850217110188582415L
aL5007310591025383556L
aL1942427654346844872L
aL167731042781557624L
aL3939323076900601935L
aL13321768163869628575L
aL12938291613172057833L
aI7899501759038903504
aI417073822930902705
aL1585510632690489719L
aI2592674446418354073
aL12191993070048571802L
aL18432672100698088291L
aL2924350804233568751L
aL5777490124040951634L
aL9181357724873844431L
aL9614344934371957533L
aL16977790384053619052L
aL17078801348783133052L
aL14748433928098233757L
aI6173374996989105240
aL4602265582989177082L
aI4010521815270847894
aL14895464340963545950L
aL11699453693249400812L
aL731080678530348564L
aL11192336919335901885L
aL2369973048511513731L
aL491292774148195755L
aL238852814532003489L
aL9508276352993739533L
aL14394226481085211627L
aL9542695396234866372L
aL17230684438968549311L
aL10167922589829045873L
aL16097436750710520411L
aL16755053232295236214L
aL15279573702760260653L
aL15173434614959946813L
aL10974139118949843367L
aL15098894039278511911L
aI7338086183540969916
aL13797399233108342102L
aI3472948521463289951
aL13932938265401998331L
aL4451015808816979513L
aL14256487505525640488L
aL563540446980436082L
aL13646349847074642837L
aL4821053252528989517L
aL16533456576515757072L
aL4379287105473063904L
aL15636442380260792210L
aL17627202884181114133L
aI6366806563179909694
aL1448886839751702452L
aI2120838877799827201
aL14570793737492653453L
aL9039035987196938252L
aL1519982223055897197L
aI5144849178444359239
aL17966878361443482483L
aL8108256530496622186L
aL2441127806785286490L
aL11945401318998721061L
aL10603056126956052433L
aL4277296475564557865L
aI4682746362834914190
aI8967351264452820437
aL3686959381140816709L
aL6247875423857315650L
aI5697222234655810347
aL16461173445642019273L
aL4892219004879360148L
aL15772848469899917649L
aL10927726165504534786L
aL14424603915758603086L
aL16423376702680337408L
aL15424921295897266926L
aL6102182856796463489L
aL3796796263393177228L
aL17375336869633637919L
aL11119490837401382756L
aL1796730416506422283L
aL13190060338304020538L
aL11516163235822480494L
aL12976088493576727328L
aI4530055018943333667
aL12261748568850442880L
aL15887933321973588289L
aL18290709076543311264L
aL15497767102014832439L
aL12444385215942324880L
aI7828346727094739209
aL12724597415096720883L
aL14966627895196640903L
aa(lp5
I4948478324624715043
aL9724013024047737025L
aL4503979676163288194L
aL14173985851373019884L
aL10899170470969940155L
aL11710588331283307469L
aL16803902274580766051L
aL8689955312549913302L
aL12561018174796011913L
aL11411556275939798709L
aL11203132674779963506L
aL8380355721099124882L
aL13497414778094196487L
aI8403937164182526495
aL6630382198549621591L
aL14253734025963661394L
aI3032648847142621759
aL15046156727406749404L
aI2481778753236856463
aL9955012514690099845L
aL15111227426238688354L
aL5885437878948946861L
aL17296796013819374372L
aL1370836710241932045L
aL4610044706737137212L
aL12591072838027977476L
aL7845937452192687846L
aI7578414474541552300
aL9664561114702680652L
aL13119871520192882032L
aL15612151956327012972L
aL12847695577097167113L
aL17114162136632746903L
aL3626722436126502598L
aI7621822009440299041
aL7887181064678790869L
aL4722304473763439588L
aL16504373314504893866L
aL11164210340435710017L
aL1643675314306656071L
aL12364635243895565763L
aL13947759369917688875L
aL10558707506845953265L
aL14553183803443351707L
aL9766566824867340927L
aI2209208387855965175
aL13224149923041203523L
aL11750707138002217982L
aL17397936211425665434L
aL12959834594475430202L
aL13414817706668957113L
aL1332293781822577075L
aI811956771347525620
aL9500020587078264326L
aI2751143073549183734
aL2293420493807669577L
aL3729560207911509749L
aL3400879866331962616L
aL10929225568270164534L
aI8783038296918354024
aL7011191339851066908L
aL13723606115914619328L
aL18276750498438996958L
aL16852115100420073454L
aL10066095797148506806L
aL15583659841716068577L
aL10274273142130562161L
aL10000953604424388616L
aI195118400689480567
aL12253935967195799024L
aI6193096264989992916
aL16737635218490775517L
aL7547281077342528159L
aL6696307328059478490L
aL840324928840357241L
aL13826808307077425651L
aL11097704375385254604L
aL10825197026470334981L
aI6390918643650336163
aL10549077375428499068L
aL2587238032649641660L
aL13767356272901755774L
aL13734222387316204365L
aL15922067261518323221L
aL5533701830139023763L
aL16236702311343694291L
aL7897391870296648792L
aL10266031833159069436L
aL8679884689093515355L
aL6743404396750740324L
aL169160230825236986L
aI434580843190656387
aL10869184971431094408L
aL11703051652691059008L
aI1972891192084230077
aL12913893355230718903L
aL11817212952452256115L
aL14450988025842473509L
aI3129245914164172929
aI1985198367288218928
aL11514373907800415878L
aL498273977116567310L
aL4271920312327608520L
aL17606148712797515613L
aL4988366854524558608L
aL6091468856909426026L
aL16154174517605935981L
aI1088653734323678093
aL9030101069590746780L
aL779718161239465927L
aL5222323583303364455L
aL14759197197805559388L
aL15084829198521718511L
aL1435515552918546816L
aL8075529780090447083L
aL14491038664995285526L
aL10305140932109558850L
aL16764033880276528464L
aI8172196142249356885
aL9456172835286916235L
aL226174825624769348L
aL17358941311458316713L
aL738543038008288586L
aL3955980201265909810L
aL17667313897000478179L
aL14997944025307536465L
aI1036072379458380083
aL15654295238048459359L
aL15860343782490121368L
aL8142441052673547878L
aL12622114081043059511L
aI5229984094317319658
aI5032759708265473949
aL13836991921352662040L
aL17012079454208545700L
aI1048519737094364094
aL12023296704823320500L
aL14717476424481973457L
aL7034912974088508561L
aI6470098430198095645
aI5327705899044446036
aL3097328089510979762L
aL9416368210502266040L
aI1682439800015984500
aL6735322228330177001L
aL12078696248184952074L
aL17409838354092366615L
aL13186237141607735293L
aL18172785730460013549L
aL1150218621885665536L
aL3894415739165469375L
aL12871822634839497604L
aL545299568828132784L
aL10660972579583141455L
aI2793304338928750715
aL11468011158778373131L
aL7243318877835532886L
aI8991409153799481007
aL4712233700780366185L
aI2834299735875706952
aI7349314664812155112
aI3335241679900284486
aI4918299828820301742
aL14148573330529802337L
aL6933208042631079074L
aI1337722271480161086
aL11976933797700920633L
aL3655090718433170507L
aL15350271491752350358L
aL16265194026245593950L
aL6081257893174958055L
aL2181261887906046330L
aL17906443549691866393L
aL16195754948520743392L
aL1880935148474295555L
aI1708257778992524793
aL4193865520948580982L
aL15951802897827638822L
aL15964690357205800107L
aL5598215016867928877L
aL3688384651685291128L
aL17076177895398402345L
aL8179856768430249176L
aL8492586892628037793L
aL12313809661061867389L
aI6424280748765619600
aL13458665343309621044L
aL9060279724569259025L
aL18221420215853410656L
aL15414370049183410203L
aI4241919206237219067
aL17948758085426928938L
aI3134674561938891276
aL16566096944134037287L
aL12055554897045843847L
aI8723005977495032549
aL17633936196070806992L
aL14819166300752975074L
aL14791378426360573551L
aL10601099001957752002L
aL16473582483904730521L
aL12666101902263200186L
aL274228909548710345L
aI6979025299658972719
aL18012996711328376743L
aL15317205773734994597L
aL13942489464344073894L
aL17108188423415683354L
aL4297878323018277445L
aL4546351181709417649L
aL4680238908164696410L
aL14205099655720424159L
aI7516680765091633170
aL5487179905937877790L
aL9755950986444019954L
aL15695875827063099602L
aL6133767788240428377L
aI5574633448970166688
aL3449637794118739573L
aL14439086281793773736L
aI1594916996474510794
aL17901174077095991188L
aL11210669743400803071L
aL7786609375135390827L
aL13528173681811041674L
aL2862246352049527493L
aL15311231636130125864L
aI539449413440345917
aI4498129371248301583
aL5260795051923416537L
aI1943204278668648334
aL10041969130524762171L
aL5854837717282216224L
aI3361059508293184715
aI5781493244451640222
aL2251259652833209284L
aL8446065401421408812L
aL4620206197639042007L
aL17709034520814165870L
aI2494085804683449346
aI6367196893188468526
aL7283389101250292325L
aL12355004688089782094L
aI8947015901423787042
aL11434697227370386488L
aL9385608881307096629L
aL13215909012688236494L
aL18251337552116930899L
aL4007365376040557196L
aL5824900389305542931L
aL13901230672085247637L
aL16460694634498502420L
aI3994918133572034561
aL2524969336506770481L
aL10371506712714763983L
aL7235236585658097883L
aa(lp6
L17634282272970065330L
aL8169129284077330461L
aL4246071401145930453L
aL10279960892242495334L
aL5461812319655757897L
aL3760189311544395824L
aL3327463828614616228L
aL7975623791366733348L
aL4231310418652646577L
aL4418359748257303104L
aL15434781651910440238L
aI6933671769839581861
aL4104597242624530057L
aL17532520958687494979L
aL13309886559641677807L
aL14879591637500113794L
aL16941898632191231471L
aL14713324698960964026L
aL15949481225561191170L
aL9207840218047833244L
aL10153109100441378142L
aL17795790662571188106L
aL12798188757583737851L
aL11126516983430054167L
aI8807421584029197873
aL12236840109163066711L
aL3185980868751020280L
aL6070228893021099632L
aL16300722346349713915L
aL16563751502905335562L
aL18048876423937384279L
aL5650644122109940864L
aI1653246788696549064
aI3781705753608312404
aL14363270394415951766L
aL18413129649435778554L
aL2295701806561180380L
aL12957590360098384323L
aL400027898278049836L
aL16312738801858283423L
aL4806338971476871737L
aL7335157757446846472L
aL3731066136039689921L
aI6017355271836831461
aL3569595252861768953L
aL15287532853068820850L
aL3918192527383892488L
aL16685998393782060338L
aL17387097349015832351L
aL11373116863271557506L
aI8656298111464530541
aL15762167738302707187L
aL4976392294891754156L
aL11114009940182687603L
aI8566596856628836488
aL10736324324921394582L
aL16700792430409194326L
aL35960498440321665L
aL15610916717137949103L
aL3348487491362867904L
aL7095296576073801885L
aL15245814604148419047L
aL18436930670033486750L
aL13638265189191183682L
aL12427298922538903966L
aI7571432977933805233
aI5121952244007360240
aL17051066559366307194L
aL11600013348379797827L
aL10452283779257173819L
aI6719937502272295936
aL7996891614953709632L
aL9764853372558023538L
aL3161359915825092105L
aL15449296412518017866L
aI11946163460105445
aL10872938647297065418L
aL800353656090901677L
aL9253264217785048451L
aL11578252952644319015L
aL1074534881450229248L
aL10611377572672314627L
aL4683001227072720897L
aL5894974025795704029L
aL14047793674060837727L
aI1758586488379957833
aI7845776933228700700
aL15311547394140352278L
aL18286378938127648706L
aL7712489322053460717L
aL3716272305638101157L
aL10963876022829620015L
aL10984897684122518859L
aL12053813033370841558L
aL12403779368328525818L
aL1061779485408862308L
aL8428992979037306068L
aL1393543611563129345L
aL12378877217503703307L
aL4560541997501484572L
aL17217078494489446210L
aI814830964650238665
aI4820605104546780253
aL1885062115604953201L
aI2812494842160220336
aI2131662470057599204
aL6390868648795625133L
aL17202317580648536358L
aL1631484116628994220L
aL10858672445574799278L
aL18027852554963583283L
aL13322639833969783179L
aL2273835917837984952L
aL648530888743385329L
aL14667101808874352943L
aL13900553676565608195L
aL10712558342735109106L
aL18272218435482311078L
aL10041671847837517259L
aL672648715255031445L
aI8306315352484799553
aI2518941044271532573
aL421260666407953992L
aL911790708959405112L
aI6556742105584716949
aL6870634364193296476L
aL12568918221963914690L
aI3009545949941371477
aL14026031070779862331L
aL6405627423742232777L
aL8822426726285441109L
aL7585912476858906837L
aL13001507840581300566L
aL13147630734147368202L
aL14217846784895314890L
aL4396810458285085732L
aL11500991261571269562L
aI3137558689136052333
aL17374555250177169787L
aL13888290853748582759L
aL2995385241204706353L
aI8679817871766240265
aL15774923202996431767L
aL3592762963820530333L
aL17897616612046183179L
aL16090401230236907358L
aL7071284448773308153L
aL8554336172704933612L
aL3198489913453743772L
aI9066792664805580992
aL11515153971763158494L
aL15925363467836124518L
aL5447649403238340141L
aI8291202595527473701
aL16540583585721024878L
aL9044924585716645540L
aL1908584066406491669L
aL14202736166831240622L
aL10138350394281345850L
aL3906175865783995500L
aI6533468712592577265
aL4659235313538797157L
aI7480708905098591316
aL2143887840828489344L
aL2495172940370809977L
aI5320764766262545429
aL933060723046234716L
aL12038700207626923954L
aL12986995287519211314L
aL10020120281532177327L
aL10303234216448055554L
aL5134496601999280276L
aI1495006133575597296
aL14688967903688863563L
aL17074342091252744990L
aL11724367055601415035L
aL157932717582229689L
aL9399387111468587487L
aI1231747218648703033
aL9377873065997010875L
aL8407232514649449136L
aL6207841572072231468L
aL1743579155623885869L
aL12936355590514177959L
aI172447272098496221
aL6040525173296484481L
aL16953807472997669771L
aL9641482766772404554L
aL13765831668869724026L
aL2833410890208433876L
aL10473201949019691359L
aL14339785895794766322L
aI4081321642085714157
aI2358694957434884133
aL5487013812506627768L
aL13623785758918456102L
aL9889985420084904343L
aL17885107361117914479L
aI7736609338930871433
aL16174989783363208131L
aI6948184116676125889
aL16791338109714170291L
aL16153473547390623143L
aL12811049646610836895L
aL6082243364254189588L
aL7459473929423053360L
aL17772022489883869678L
aL9626686539778613038L
aL15100399795936423355L
aL16812887468472983511L
aL6849082866540318264L
aI6708026522571688548
aL1507269025179198100L
aI5880178004893223609
aL11736627670872943903L
aL13451497057485417395L
aL14856069892924108262L
aI1246857768060419677
aL10598833283466969959L
aL9241249952777487335L
aL8145642646562897529L
aL9788023480108991766L
aI4997310533440851144
aL13789951617094756638L
aL12366649450141527919L
aL11915637409869182346L
aL17648550665193364438L
aL15632186799877140427L
aL12214971823848581939L
aL13472764949858989527L
aL9195612656911203064L
aI4548633225481638008
aI7322296662328419948
aL15258673285495682947L
aL2686725046554694280L
aL546704951205346416L
aI2372963280871591489
aL14728331825491507166L
aL14526190595071849843L
aI5638137284953885412
aL1370059181594305637L
aL14538416171934051095L
aL15121632357840794591L
aL6229355823769341000L
aL12553913285798998950L
aI5296961331892753009
aL11892150703568153582L
aL7833023727687187064L
aI5508035267708211420
aL13123618400621325166L
aI2674182879063657708
aL17511604979291659559L
aL16075923990464145722L
aL11349313635127298022L
aI559563838778139156
aL9878074371731939315L
aa(lp7
I7338359801437654373
aL13155100974332146469L
aL15753353447954799587L
aL904555118105565741L
aI7957578033603084468
aL689539890420069946L
aL11604819643281811666L
aL1200384238648675339L
aL8268017312232545926L
aI7081993493011772968
aL857048636296587636L
aI7747535009064707255
aL14181691892409225867L
aL8440512216826652107L
aL12758436574180198504L
aL1516416173858241425L
aL7767869795688970030L
aL11779723558405175196L
aI9110065730992758798
aL14824750131531996057L
aL13474550482257172000L
aL15250752977879875944L
aL8283289140675743007L
aL8583331559354755356L
aL14058517375822527071L
aI7789990260319903738
aL13789110729759662522L
aL14435777017897729946L
aL12120929933019984473L
aL13313660785804745463L
aL13175716965047918780L
aL14477323630407836695L
aL14952144297302071118L
aL11651795675876750175L
aL15487968833598324454L
aL13293632587586716026L
aL899459769647649337L
aL14161216934710100242L
aL919968460887493044L
aI5896696159401788
aL411807102210015398L
aI7287161372072822129
aL1829607824239206036L
aL8106833677265654353L
aL12616424018115678873L
aL1564020021148213276L
aL13826935633911970359L
aL1058635778709575418L
aI7742501370705456291
aL14972624201446327511L
aL15945480245685875511L
aL7969360317450209440L
aL13646017444885261677L
aL16085973989836369017L
aL1028828777698500334L
aL878843508044644768L
aL12003154240519476127L
aI171584092401182834
aL8126886409750790600L
aI661566755397332407
aL15994074863019239610L
aL12494092701710290391L
aL1179585665248658463L
aL13811105013448173998L
aL14599734249080765273L
aL12141691312143114688L
aL11758967125731501061L
aL15211585719003486949L
aL12673322040742517389L
aI186814867788128358
aL11785878277743296392L
aL13297543742555818350L
aL14949300905403047770L
aL12657768457914583316L
aL11801150384269110289L
aL12268742567730736407L
aL1324653530798835912L
aL8640221172595073288L
aL16105782148279564276L
aL559129913013428200L
aL8740870886648414414L
aL13034872465324878955L
aL12953918453232061611L
aL14336041822443773532L
aL8104060078736022085L
aL13019036897908310002L
aL12022930165598355462L
aL13661178409991054713L
aL1012993481101643127L
aL13127897491811805352L
aL12774126165202721777L
aL13937663107301975313L
aL7588077525024039028L
aL1673021077473425222L
aL7115245940439776828L
aL15091295499914331563L
aL1159527984965130118L
aL7568165207367513069L
aL8235887466076001938L
aI8941916107301437248
aL7307355163347113704L
aL16125976219030479981L
aL12508126667297113539L
aL206727184087741439L
aL7131357765531954597L
aL13405278437643001396L
aL12477835724450471502L
aL14792691178189362061L
aI7467657072619901483
aL13420972975140146605L
aI2232464128082388441
aL1814335996653669645L
aL11842575221804078940L
aI7617946236133648480
aI1994690957409720919
aL7937380392681575213L
aL11822095316298695877L
aL11973983692775901202L
aL155467319502224363L
aL13950642235308961029L
aL12159741528400853581L
aL7805398655303437411L
aL11882361682080615633L
aL14933751170861878467L
aI1970524023682814531
aL13681798250362975968L
aL15333901517107474993L
aL12824342457491062908L
aL15588547354370760480L
aL362803606949157675L
aI7726806552944656186
aL26231483540661413L
aI8958173356234452185
aL7062077328425919921L
aL14456567199090964366L
aL14585620981226402637L
aL8771862199297657050L
aL543721518883359857L
aL14073785634061576646L
aL14269092364982965832L
aL1863352296869774617L
aL8460991850692392530L
aL14319784844330339781L
aL519119308809181180L
aL12144473268838427092L
aL6934749984493136230L
aL8490583646672514527L
aL11990236822594182027L
aL1692792334984013023L
aL15270665574409065201L
aL15103147628670717375L
aL15442761816688272747L
aL14288863342263977425L
aL63849674406510376L
aL1216356162984959890L
aL8921226107400984468L
aL12320920357087524506L
aL6954342650736718571L
aL1359518415708099397L
aL1711902483403554642L
aL12932780837851567910L
aL2010666731363994062L
aL8895005591773826073L
aI1309385550641879889
aL14154983187982289158L
aI8088084306105108956
aL7430258921507916198L
aL13768912810721980963L
aL15308599049131321788L
aL12252770913744813710L
aL11866811948866887496L
aL797977997983031648L
aI8787130178596952899
aL12937806358647201586L
aI8879033666114183040
aL1842596135079138944L
aL12975730899837412479L
aL13966613890152562332L
aL16101809558106423264L
aL7634063007709379577L
aL13273719991814542051L
aL15422141977677346546L
aL2057630023458028183L
aL7828519816142488695L
aL2031629272711274778L
aL15610462335791273780L
aL14118722031522755147L
aI8720109777050997591
aL709456056362837411L
aL14615709751361841344L
aL12300862956276950275L
aL9138528316990503811L
aI7849139926040123374
aL15717774815187959918L
aI9122975014426224666
aI1695645235797961931
aL2051405476659147395L
aL48154857503501489L
aL2165505436634901965L
aL2181054890912939604L
aL14097960651042824658L
aL8475034191540878918L
aL13143310555657648945L
aL15769043037654075514L
aL6950439853597752063L
aL15227702761394604412L
aI8901168428474237965
aL15070960984173237810L
aL12912864393035613375L
aL15978661800500968227L
aL1584494707207172997L
aL841358766334180077L
aL15118842167491108390L
aL7985190666240285497L
aL12804004093454816229L
aL12636898974453678336L
aL13630609330164858612L
aL8599584958665718405L
aI2073883424096413966
aI8620444967286092433
aL2211984493463844416L
aL7445672263436376639L
aL1531969477276117000L
aL11671848128132309190L
aL15738113180581139447L
aL677678579166281262L
aL14841003260496660480L
aL15630378779850212525L
aL14139429606481795743L
aI539739419459748965
aI7322524503513243388
aL15292768429521009189L
aL14772915252357660692L
aL378633957066786994L
aL15313703597316841896L
aI1338757306867810524
aL8215131305042494731L
aL818316632901923577L
aL432004741770548031L
aL6974681286412607858L
aL13917605707248547464L
aL12527897645330945626L
aI1950471292554461658
aI9089591044180997015
aI9002190573517436756
aL15572435258928090297L
aL11620795146420566859L
aL1078829571344844131L
aL15472560717550349695L
aL14565568528213696724L
aI8982419317367956685
aL15924864253609107630L
aL14420504910048537603L
aI7488273334975840690
aL13454215965159146937L
aL12995924971341281254L
aa(lp8
L1684131758284741673L
aL11077281234902637353L
aL17914821558700592787L
aL8713852623808815932L
aL2438715863012465505L
aL10477951630119602533L
aL794619400419055633L
aL15913337066514900812L
aL12341154474545495815L
aL14555602842752988824L
aL9866191956645390747L
aL16643677333880688942L
aL4982817437082151453L
aL8494995990798964150L
aL5123609648205263256L
aL18223805478055538165L
aL137498398856827352L
aL1334725837877393647L
aI7909929386728665832
aL11788127435667041611L
aL10849103743645660710L
aL17959559808430557491L
aI5500813592601542641
aL10048911356280550846L
aI8976834068569145434
aI4060812110875917215
aL13168441090763668639L
aL7256952665872164612L
aL766765418548666289L
aL7502834410238055982L
aL9126596171662285791L
aL12466362400094128100L
aL6703459650269171011L
aL14029703155610777841L
aL17846517936403981212L
aL11649658476746438350L
aL6218096748743295786L
aL11688178338920229611L
aL11529096856153678794L
aL6448790471018802725L
aL8741141615042880668L
aL4177634210047458367L
aL17569206591494127866L
aL6184630727171940111L
aI2139294328748725728
aL3842551292901100821L
aL9154474347420179583L
aL9691039070116365108L
aL14437683461643579704L
aL13408693025972112821L
aL13919678958175839444L
aI1116545190074923895
aI5201408102094412951
aL15613498815169414186L
aL12167512843592540962L
aL12779342477743948764L
aL15395504068280300192L
aL4682719923071667931L
aL12882123053406527481L
aL6403454512430246277L
aL619289817251513396L
aI302485450415174942
aL17469827411339937626L
aL10959931494432365705L
aL13007383893686265626L
aL17128983095207501639L
aL17696789565694654489L
aL3497510137032419795L
aI3681270606725297654
aL7951826640419761869L
aL4333354359633369337L
aL10307941774759761624L
aL8332140683063504213L
aL15277553908832318720L
aL15794524795719145487L
aL1380055474703875919L
aL928274803318695762L
aL11948660471182939560L
aI1232509650979529930
aL6975000281828869218L
aL8850104401555388601L
aL9239276087107910615L
aL10893316242033422726L
aL13526043010884323861L
aL8895440665252298521L
aI7433972854509927201
aI3653992884841722454
aL7388667402303372417L
aI5749397144749482964
aL5768796775359921097L
aL11531732510651183470L
aL7284281265901756580L
aL3948630919253922096L
aI177708549707419133
aL16670407644931217038L
aL2957544175405238573L
aL1541090007692511148L
aL15122556126574875078L
aL9647372706879921937L
aI8378770015637836310
aL16063133039986998473L
aL17728568047369069628L
aL3068191789859575048L
aL9892392393319329339L
aL21226240253023864L
aL13270153826909673008L
aL16366330225952191976L
aL10173943497495252317L
aL1071246314272931031L
aL6862158524959151814L
aL3274823970054253131L
aL1495223689096167436L
aL401299605838459582L
aL1759383673718763814L
aL2586261300457324772L
aL14324342253513989015L
aL16322159504913822280L
aL2023061727262429760L
aL12100638658083868205L
aL5453925054599037106L
aL2594871436363726759L
aL16089287048103132009L
aL14710226773858488926L
aL10715175689385061795L
aI955592377902866674
aL9339224904981740663L
aL665195710147330964L
aL7619099992982557070L
aI2929690472407830157
aL12752592641800275068L
aL3408858608243978702L
aL13721608860565368531L
aL10616418794013168352L
aL3381541278777030254L
aL5337659218684249874L
aL11107370347990566668L
aI6086386023543445679
aL9790380870829261972L
aL11206742909864263852L
aL10741336568805173763L
aL4208287033299460122L
aL10589668695709488448L
aI6675581762641087203
aL5650576116869047412L
aL14055896719768584017L
aL15023176693388809830L
aL6575964774290519456L
aL18086770180570763958L
aL16529651778090323211L
aL2175073930317187525L
aL553241294377314619L
aL4476326308405101436L
aL8215307864293354229L
aI8635784241694510643
aL4307061877726996410L
aL5617615905058895953L
aL15749786816939122607L
aL1858158255786292870L
aL14219394056215480242L
aI3229525390372220395
aL6816303475922751846L
aL14192664015447998482L
aL9529983410367977649L
aL17002112552968628132L
aL10129172267047881469L
aL11268202450844876783L
aL14369119806725610551L
aL5885629865080011881L
aL13875508490307756916L
aL17596891329989230521L
aI3114097420525408936
aL11983249065451964813L
aL12926854431623059545L
aL8088063759190536560L
aI7157076472094480455
aL15957538295543783660L
aL12582578388770888641L
aL12439643359538872388L
aL4592559154870207708L
aL18408692638892356048L
aL5096281352885564984L
aL15640259633071702922L
aL3814666795591109301L
aL17432991690080852863L
aL18249959739740416597L
aL436450252415233691L
aL5923029287913496652L
aL11368111694287108175L
aL8537539791634762131L
aI6021810741494458348
aI4431610079051997017
aL11849318425352819208L
aL1656246999151614857L
aL3542839529416961651L
aL4855859071204676350L
aL14682810595231378717L
aL1897888985222376099L
aL10433219972900064965L
aL275933213055339101L
aL16484873936878914219L
aL13051596147095216314L
aL13569560450667345238L
aL13194601674202233663L
aL2273329353754267237L
aL3994496958310389392L
aL15536258432150743333L
aL12314954282451908775L
aL14850910639889058267L
aL13369526685301789072L
aL17260730035559269570L
aL15150454668333714915L
aL8068628664877328749L
aL16194878617711929805L
aL16747908060570205057L
aL10281222454794654072L
aL18060009075075536150L
aL12627349357525146721L
aL7811108629131277640L
aL15267815678154476099L
aL4809964448812520798L
aL14582872498168310461L
aI2340490955084192961
aL2014710805390912771L
aI2711662740018919431
aL15436359908315508357L
aL13821518365830736243L
aL4937512238582754749L
aL16221072487116500589L
aI7746273583022115339
aL12211694285374825602L
aL17315630985368444127L
aL2854705186664080258L
aI7648059945664875947
aL6334323028475905162L
aL17161381667031745378L
aL2469988845196691268L
aI7129229091852935143
aL4710567032493295995L
aL11411140375153599594L
aL18364491105291990640L
aL9368808277099241554L
aL14809575447095907838L
aL16884193459322134532L
aL10004729617841435166L
aL6548676036088328704L
aL14968311206963646075L
aL17011582781840070887L
aL7020895191683941314L
aL1205231632577536874L
aI9022689388018616314
aL13687517211207299830L
aL2755890751830942754L
aL9486733980964513778L
aL16847845886813355041L
aL8186844925178558160L
aL5299622044698417975L
aa.